target datalayout = "e-m:e-p270:32:32-p271:32:32-p272:64:64-i64:64-i128:128-f80:128-n8:16:32:64-S128"
target triple = "x86_64-pc-linux-gnu"

%struct.ImVector.1 = type { i32, i32, ptr }
%struct.ImFont = type <{ %struct.ImVector.6, float, float, %struct.ImVector.1, %struct.ImVector.7, ptr, ptr, ptr, i16, i16, i16, i16, float, float, i8, [3 x i8], float, float, float, i32, [2 x i8], [2 x i8] }>
%struct.ImVector.6 = type { i32, i32, ptr }
%struct.ImVector.7 = type { i32, i32, ptr }

; Function Attrs: inlinehint mustprogress nounwind uwtable
define internal noundef zeroext i1 @_ZL14ImCharIsBlankWj(i32 noundef %0) #7 {
  %2 = alloca i32, align 4
  store i32 %0, ptr %2, align 4, !tbaa !21
  %3 = load i32, ptr %2, align 4, !tbaa !21
  %4 = icmp eq i32 %3, 32
  br i1 %4, label %11, label %5

5:                                                ; preds = %1
  %6 = load i32, ptr %2, align 4, !tbaa !21
  %7 = icmp eq i32 %6, 9
  br i1 %7, label %11, label %8

8:                                                ; preds = %5
  %9 = load i32, ptr %2, align 4, !tbaa !21
  %10 = icmp eq i32 %9, 12288
  br label %11

11:                                               ; preds = %8, %5, %1
  %12 = phi i1 [ true, %5 ], [ true, %1 ], [ %10, %8 ]
  ret i1 %12
}

; Function Attrs: mustprogress uwtable
define dso_local noundef ptr @_ZNK6ImFont21CalcWordWrapPositionAEfPKcS1_f(ptr noundef nonnull align 8 dereferenceable(118) %0, float noundef %1, ptr noundef %2, ptr noundef %3, float noundef %4) #6 align 2 {
  %6 = alloca ptr, align 8
  %7 = alloca ptr, align 8
  %8 = alloca float, align 4
  %9 = alloca ptr, align 8
  %10 = alloca ptr, align 8
  %11 = alloca float, align 4
  %12 = alloca float, align 4
  %13 = alloca float, align 4
  %14 = alloca float, align 4
  %15 = alloca ptr, align 8
  %16 = alloca ptr, align 8
  %17 = alloca i8, align 1
  %18 = alloca ptr, align 8
  %19 = alloca i32, align 4
  %20 = alloca ptr, align 8
  %21 = alloca i32, align 4
  %22 = alloca float, align 4
  store ptr %0, ptr %7, align 8, !tbaa !169
  store float %1, ptr %8, align 4, !tbaa !12
  store ptr %2, ptr %9, align 8, !tbaa !170
  store ptr %3, ptr %10, align 8, !tbaa !170
  store float %4, ptr %11, align 4, !tbaa !12
  %23 = load ptr, ptr %7, align 8
  call void @llvm.lifetime.start.p0(i64 4, ptr %12) #17
  store float 0.000000e+00, ptr %12, align 4, !tbaa !12
  call void @llvm.lifetime.start.p0(i64 4, ptr %13) #17
  store float 0.000000e+00, ptr %13, align 4, !tbaa !12
  call void @llvm.lifetime.start.p0(i64 4, ptr %14) #17
  store float 0.000000e+00, ptr %14, align 4, !tbaa !12
  %24 = load float, ptr %8, align 4, !tbaa !12
  %25 = load float, ptr %11, align 4, !tbaa !12
  %26 = fdiv float %25, %24
  store float %26, ptr %11, align 4, !tbaa !12
  call void @llvm.lifetime.start.p0(i64 8, ptr %15) #17
  %27 = load ptr, ptr %9, align 8, !tbaa !170
  store ptr %27, ptr %15, align 8, !tbaa !170
  call void @llvm.lifetime.start.p0(i64 8, ptr %16) #17
  store ptr null, ptr %16, align 8, !tbaa !170
  call void @llvm.lifetime.start.p0(i64 1, ptr %17) #17
  store i8 1, ptr %17, align 1, !tbaa !126
  call void @llvm.lifetime.start.p0(i64 8, ptr %18) #17
  %28 = load ptr, ptr %9, align 8, !tbaa !170
  store ptr %28, ptr %18, align 8, !tbaa !170
  br label %29

29:                                               ; preds = %157, %155, %5
  %30 = load ptr, ptr %18, align 8, !tbaa !170
  %31 = load ptr, ptr %10, align 8, !tbaa !170
  %32 = icmp ult ptr %30, %31
  br i1 %32, label %33, label %158

33:                                               ; preds = %29
  call void @llvm.lifetime.start.p0(i64 4, ptr %19) #17
  %34 = load ptr, ptr %18, align 8, !tbaa !170
  %35 = load i8, ptr %34, align 1, !tbaa !41
  %36 = sext i8 %35 to i32
  store i32 %36, ptr %19, align 4, !tbaa !21
  call void @llvm.lifetime.start.p0(i64 8, ptr %20) #17
  %37 = load i32, ptr %19, align 4, !tbaa !21
  %38 = icmp ult i32 %37, 128
  br i1 %38, label %39, label %42

39:                                               ; preds = %33
  %40 = load ptr, ptr %18, align 8, !tbaa !170
  %41 = getelementptr inbounds i8, ptr %40, i64 1
  store ptr %41, ptr %20, align 8, !tbaa !170
  br label %49

42:                                               ; preds = %33
  %43 = load ptr, ptr %18, align 8, !tbaa !170
  %44 = load ptr, ptr %18, align 8, !tbaa !170
  %45 = load ptr, ptr %10, align 8, !tbaa !170
  %46 = call noundef i32 @_Z18ImTextCharFromUtf8PjPKcS1_(ptr noundef %19, ptr noundef %44, ptr noundef %45)
  %47 = sext i32 %46 to i64
  %48 = getelementptr inbounds i8, ptr %43, i64 %47
  store ptr %48, ptr %20, align 8, !tbaa !170
  br label %49

49:                                               ; preds = %42, %39
  %50 = load i32, ptr %19, align 4, !tbaa !21
  %51 = icmp ult i32 %50, 32
  br i1 %51, label %52, label %63

52:                                               ; preds = %49
  %53 = load i32, ptr %19, align 4, !tbaa !21
  %54 = icmp eq i32 %53, 10
  br i1 %54, label %55, label %57

55:                                               ; preds = %52
  store float 0.000000e+00, ptr %14, align 4, !tbaa !12
  store float 0.000000e+00, ptr %13, align 4, !tbaa !12
  store float 0.000000e+00, ptr %12, align 4, !tbaa !12
  store i8 1, ptr %17, align 1, !tbaa !126
  %56 = load ptr, ptr %20, align 8, !tbaa !170
  store ptr %56, ptr %18, align 8, !tbaa !170
  store i32 2, ptr %21, align 4
  br label %155, !llvm.loop !515

57:                                               ; preds = %52
  %58 = load i32, ptr %19, align 4, !tbaa !21
  %59 = icmp eq i32 %58, 13
  br i1 %59, label %60, label %62

60:                                               ; preds = %57
  %61 = load ptr, ptr %20, align 8, !tbaa !170
  store ptr %61, ptr %18, align 8, !tbaa !170
  store i32 2, ptr %21, align 4
  br label %155, !llvm.loop !515

62:                                               ; preds = %57
  br label %63

63:                                               ; preds = %62, %49
  call void @llvm.lifetime.start.p0(i64 4, ptr %22) #17
  %64 = load i32, ptr %19, align 4, !tbaa !21
  %65 = getelementptr inbounds nuw %struct.ImFont, ptr %23, i32 0, i32 0
  %66 = getelementptr inbounds nuw %struct.ImVector.6, ptr %65, i32 0, i32 0
  %67 = load i32, ptr %66, align 8, !tbaa !516
  %68 = icmp slt i32 %64, %67
  br i1 %68, label %69, label %77

69:                                               ; preds = %63
  %70 = getelementptr inbounds nuw %struct.ImFont, ptr %23, i32 0, i32 0
  %71 = getelementptr inbounds nuw %struct.ImVector.6, ptr %70, i32 0, i32 2
  %72 = load ptr, ptr %71, align 8, !tbaa !514
  %73 = load i32, ptr %19, align 4, !tbaa !21
  %74 = zext i32 %73 to i64
  %75 = getelementptr inbounds nuw float, ptr %72, i64 %74
  %76 = load float, ptr %75, align 4, !tbaa !12
  br label %80

77:                                               ; preds = %63
  %78 = getelementptr inbounds nuw %struct.ImFont, ptr %23, i32 0, i32 1
  %79 = load float, ptr %78, align 8, !tbaa !442
  br label %80

80:                                               ; preds = %77, %69
  %81 = phi float [ %76, %69 ], [ %79, %77 ]
  store float %81, ptr %22, align 4, !tbaa !12
  %82 = load i32, ptr %19, align 4, !tbaa !21
  %83 = call noundef zeroext i1 @_ZL14ImCharIsBlankWj(i32 noundef %82)
  br i1 %83, label %84, label %96

84:                                               ; preds = %80
  %85 = load i8, ptr %17, align 1, !tbaa !126, !range !128, !noundef !129
  %86 = trunc i8 %85 to i1
  br i1 %86, label %87, label %92

87:                                               ; preds = %84
  %88 = load float, ptr %14, align 4, !tbaa !12
  %89 = load float, ptr %12, align 4, !tbaa !12
  %90 = fadd float %89, %88
  store float %90, ptr %12, align 4, !tbaa !12
  store float 0.000000e+00, ptr %14, align 4, !tbaa !12
  %91 = load ptr, ptr %18, align 8, !tbaa !170
  store ptr %91, ptr %15, align 8, !tbaa !170
  br label %92

92:                                               ; preds = %87, %84
  %93 = load float, ptr %22, align 4, !tbaa !12
  %94 = load float, ptr %14, align 4, !tbaa !12
  %95 = fadd float %94, %93
  store float %95, ptr %14, align 4, !tbaa !12
  store i8 0, ptr %17, align 1, !tbaa !126
  br label %132

96:                                               ; preds = %80
  %97 = load float, ptr %22, align 4, !tbaa !12
  %98 = load float, ptr %13, align 4, !tbaa !12
  %99 = fadd float %98, %97
  store float %99, ptr %13, align 4, !tbaa !12
  %100 = load i8, ptr %17, align 1, !tbaa !126, !range !128, !noundef !129
  %101 = trunc i8 %100 to i1
  br i1 %101, label %102, label %104

102:                                              ; preds = %96
  %103 = load ptr, ptr %20, align 8, !tbaa !170
  store ptr %103, ptr %15, align 8, !tbaa !170
  br label %111

104:                                              ; preds = %96
  %105 = load ptr, ptr %15, align 8, !tbaa !170
  store ptr %105, ptr %16, align 8, !tbaa !170
  %106 = load float, ptr %13, align 4, !tbaa !12
  %107 = load float, ptr %14, align 4, !tbaa !12
  %108 = fadd float %106, %107
  %109 = load float, ptr %12, align 4, !tbaa !12
  %110 = fadd float %109, %108
  store float %110, ptr %12, align 4, !tbaa !12
  store float 0.000000e+00, ptr %14, align 4, !tbaa !12
  store float 0.000000e+00, ptr %13, align 4, !tbaa !12
  br label %111

111:                                              ; preds = %104, %102
  %112 = load i32, ptr %19, align 4, !tbaa !21
  %113 = icmp ne i32 %112, 46
  br i1 %113, label %114, label %129

114:                                              ; preds = %111
  %115 = load i32, ptr %19, align 4, !tbaa !21
  %116 = icmp ne i32 %115, 44
  br i1 %116, label %117, label %129

117:                                              ; preds = %114
  %118 = load i32, ptr %19, align 4, !tbaa !21
  %119 = icmp ne i32 %118, 59
  br i1 %119, label %120, label %129

120:                                              ; preds = %117
  %121 = load i32, ptr %19, align 4, !tbaa !21
  %122 = icmp ne i32 %121, 33
  br i1 %122, label %123, label %129

123:                                              ; preds = %120
  %124 = load i32, ptr %19, align 4, !tbaa !21
  %125 = icmp ne i32 %124, 63
  br i1 %125, label %126, label %129

126:                                              ; preds = %123
  %127 = load i32, ptr %19, align 4, !tbaa !21
  %128 = icmp ne i32 %127, 34
  br label %129

129:                                              ; preds = %126, %123, %120, %117, %114, %111
  %130 = phi i1 [ false, %123 ], [ false, %120 ], [ false, %117 ], [ false, %114 ], [ false, %111 ], [ %128, %126 ]
  %131 = zext i1 %130 to i8
  store i8 %131, ptr %17, align 1, !tbaa !126
  br label %132

132:                                              ; preds = %129, %92
  %133 = load float, ptr %12, align 4, !tbaa !12
  %134 = load float, ptr %13, align 4, !tbaa !12
  %135 = fadd float %133, %134
  %136 = load float, ptr %11, align 4, !tbaa !12
  %137 = fcmp ogt float %135, %136
  br i1 %137, label %138, label %152

138:                                              ; preds = %132
  %139 = load float, ptr %13, align 4, !tbaa !12
  %140 = load float, ptr %11, align 4, !tbaa !12
  %141 = fcmp olt float %139, %140
  br i1 %141, label %142, label %151

142:                                              ; preds = %138
  %143 = load ptr, ptr %16, align 8, !tbaa !170
  %144 = icmp ne ptr %143, null
  br i1 %144, label %145, label %147

145:                                              ; preds = %142
  %146 = load ptr, ptr %16, align 8, !tbaa !170
  br label %149

147:                                              ; preds = %142
  %148 = load ptr, ptr %15, align 8, !tbaa !170
  br label %149

149:                                              ; preds = %147, %145
  %150 = phi ptr [ %146, %145 ], [ %148, %147 ]
  store ptr %150, ptr %18, align 8, !tbaa !170
  br label %151

151:                                              ; preds = %149, %138
  store i32 3, ptr %21, align 4
  br label %154

152:                                              ; preds = %132
  %153 = load ptr, ptr %20, align 8, !tbaa !170
  store ptr %153, ptr %18, align 8, !tbaa !170
  store i32 0, ptr %21, align 4
  br label %154

154:                                              ; preds = %152, %151
  call void @llvm.lifetime.end.p0(i64 4, ptr %22) #17
  br label %155

155:                                              ; preds = %154, %60, %55
  call void @llvm.lifetime.end.p0(i64 8, ptr %20) #17
  call void @llvm.lifetime.end.p0(i64 4, ptr %19) #17
  %156 = load i32, ptr %21, align 4
  switch i32 %156, label %173 [
    i32 0, label %157
    i32 2, label %29
    i32 3, label %158
  ]

157:                                              ; preds = %155
  br label %29, !llvm.loop !515

158:                                              ; preds = %155, %29
  %159 = load ptr, ptr %18, align 8, !tbaa !170
  %160 = load ptr, ptr %9, align 8, !tbaa !170
  %161 = icmp eq ptr %159, %160
  br i1 %161, label %162, label %169

162:                                              ; preds = %158
  %163 = load ptr, ptr %9, align 8, !tbaa !170
  %164 = load ptr, ptr %10, align 8, !tbaa !170
  %165 = icmp ult ptr %163, %164
  br i1 %165, label %166, label %169

166:                                              ; preds = %162
  %167 = load ptr, ptr %18, align 8, !tbaa !170
  %168 = getelementptr inbounds i8, ptr %167, i64 1
  store ptr %168, ptr %6, align 8
  store i32 1, ptr %21, align 4
  br label %171

169:                                              ; preds = %162, %158
  %170 = load ptr, ptr %18, align 8, !tbaa !170
  store ptr %170, ptr %6, align 8
  store i32 1, ptr %21, align 4
  br label %171

171:                                              ; preds = %169, %166
  call void @llvm.lifetime.end.p0(i64 8, ptr %18) #17
  call void @llvm.lifetime.end.p0(i64 1, ptr %17) #17
  call void @llvm.lifetime.end.p0(i64 8, ptr %16) #17
  call void @llvm.lifetime.end.p0(i64 8, ptr %15) #17
  call void @llvm.lifetime.end.p0(i64 4, ptr %14) #17
  call void @llvm.lifetime.end.p0(i64 4, ptr %13) #17
  call void @llvm.lifetime.end.p0(i64 4, ptr %12) #17
  %172 = load ptr, ptr %6, align 8
  ret ptr %172

173:                                              ; preds = %155
  unreachable
}