; Function Attrs: mustprogress uwtable
define dso_local noundef ptr @_ZNK6ImFont21CalcWordWrapPositionAEfPKcS1_f(ptr noundef nonnull readonly align 8 captures(none) dereferenceable(118) %0, float noundef %1, ptr noundef %2, ptr noundef %3, float noundef %4) local_unnamed_addr #9 align 2 {
  %6 = alloca i32, align 4
  %7 = fdiv float %4, %1
  %8 = icmp ult ptr %2, %3
  br i1 %8, label %.lr.ph, label %.loopexit

.lr.ph:                                           ; preds = %5
  %9 = getelementptr inbounds nuw i8, ptr %0, i64 8
  %10 = getelementptr inbounds nuw i8, ptr %0, i64 16
  br label %11

11:                                               ; preds = %.lr.ph, %51
  %.053104 = phi ptr [ %2, %.lr.ph ], [ %.052, %51 ]
  %.055103 = phi i8 [ 1, %.lr.ph ], [ %.156, %51 ]
  %.058102 = phi ptr [ null, %.lr.ph ], [ %.159, %51 ]
  %.062101 = phi ptr [ %2, %.lr.ph ], [ %.163, %51 ]
  %.067100 = phi float [ 0.000000e+00, %.lr.ph ], [ %.168, %51 ]
  %.07299 = phi float [ 0.000000e+00, %.lr.ph ], [ %.173, %51 ]
  %.07698 = phi float [ 0.000000e+00, %.lr.ph ], [ %.177, %51 ]
  call void @llvm.lifetime.start.p0(i64 4, ptr nonnull %6) #42
  %12 = load i8, ptr %.053104, align 1, !tbaa !23
  %13 = sext i8 %12 to i32
  store i32 %13, ptr %6, align 4, !tbaa !19
  %14 = icmp sgt i8 %12, -1
  br i1 %14, label %15, label %17

15:                                               ; preds = %11
  %16 = getelementptr inbounds nuw i8, ptr %.053104, i64 1
  br label %21

17:                                               ; preds = %11
  %18 = call noundef i32 @_Z18ImTextCharFromUtf8PjPKcS1_(ptr noundef nonnull %6, ptr noundef nonnull %.053104, ptr noundef nonnull %3)
  %19 = sext i32 %18 to i64
  %20 = getelementptr inbounds i8, ptr %.053104, i64 %19
  %.pr = load i32, ptr %6, align 4, !tbaa !19
  br label %21

21:                                               ; preds = %17, %15
  %22 = phi i32 [ %.pr, %17 ], [ %13, %15 ]
  %.052 = phi ptr [ %20, %17 ], [ %16, %15 ]
  %23 = icmp ult i32 %22, 32
  br i1 %23, label %24, label %26

24:                                               ; preds = %21
  switch i32 %22, label %26 [
    i32 10, label %51
    i32 13, label %25
  ]

25:                                               ; preds = %24
  br label %51, !llvm.loop !559

26:                                               ; preds = %24, %21
  %27 = load i32, ptr %0, align 8, !tbaa !560
  %28 = icmp slt i32 %22, %27
  %29 = load ptr, ptr %9, align 8
  %30 = zext i32 %22 to i64
  %31 = getelementptr inbounds nuw float, ptr %29, i64 %30
  %.in = select i1 %28, ptr %31, ptr %10
  %32 = load float, ptr %.in, align 4, !tbaa !4
  switch i32 %22, label %_ZL14ImCharIsBlankWj.exit [
    i32 32, label %33
    i32 9, label %33
    i32 12288, label %33
  ]

33:                                               ; preds = %26, %26, %26
  %34 = trunc nuw i8 %.055103 to i1
  %35 = fadd float %.07698, %.067100
  %.278 = select i1 %34, float %35, float %.07698
  %.269 = select i1 %34, float 0.000000e+00, float %.067100
  %.264 = select i1 %34, ptr %.053104, ptr %.062101
  %36 = fadd float %.269, %32
  br label %46

_ZL14ImCharIsBlankWj.exit:                        ; preds = %26
  %37 = fadd float %.07299, %32
  %38 = trunc nuw i8 %.055103 to i1
  br i1 %38, label %42, label %39

39:                                               ; preds = %_ZL14ImCharIsBlankWj.exit
  %40 = fadd float %.067100, %37
  %41 = fadd float %.07698, %40
  br label %42

42:                                               ; preds = %_ZL14ImCharIsBlankWj.exit, %39
  %.480 = phi float [ %41, %39 ], [ %.07698, %_ZL14ImCharIsBlankWj.exit ]
  %.375 = phi float [ 0.000000e+00, %39 ], [ %37, %_ZL14ImCharIsBlankWj.exit ]
  %.471 = phi float [ 0.000000e+00, %39 ], [ %.067100, %_ZL14ImCharIsBlankWj.exit ]
  %.466 = phi ptr [ %.062101, %39 ], [ %.052, %_ZL14ImCharIsBlankWj.exit ]
  %.361 = phi ptr [ %.062101, %39 ], [ %.058102, %_ZL14ImCharIsBlankWj.exit ]
  switch i32 %22, label %43 [
    i32 63, label %46
    i32 59, label %46
    i32 46, label %46
    i32 44, label %46
    i32 33, label %46
  ]

43:                                               ; preds = %42
  %44 = icmp ne i32 %22, 34
  %45 = zext i1 %44 to i8
  br label %46

46:                                               ; preds = %43, %42, %42, %42, %42, %42, %33
  %.379 = phi float [ %.278, %33 ], [ %.480, %42 ], [ %.480, %42 ], [ %.480, %42 ], [ %.480, %42 ], [ %.480, %42 ], [ %.480, %43 ]
  %.274 = phi float [ %.07299, %33 ], [ %.375, %42 ], [ %.375, %42 ], [ %.375, %42 ], [ %.375, %42 ], [ %.375, %42 ], [ %.375, %43 ]
  %.370 = phi float [ %36, %33 ], [ %.471, %42 ], [ %.471, %42 ], [ %.471, %42 ], [ %.471, %42 ], [ %.471, %42 ], [ %.471, %43 ]
  %.365 = phi ptr [ %.264, %33 ], [ %.466, %42 ], [ %.466, %42 ], [ %.466, %42 ], [ %.466, %42 ], [ %.466, %42 ], [ %.466, %43 ]
  %.260 = phi ptr [ %.058102, %33 ], [ %.361, %42 ], [ %.361, %42 ], [ %.361, %42 ], [ %.361, %42 ], [ %.361, %42 ], [ %.361, %43 ]
  %.257 = phi i8 [ 0, %33 ], [ 0, %42 ], [ 0, %42 ], [ 0, %42 ], [ 0, %42 ], [ 0, %42 ], [ %45, %43 ]
  %47 = fadd float %.379, %.274
  %48 = fcmp ogt float %47, %7
  br i1 %48, label %.thread, label %51

.thread:                                          ; preds = %46
  %49 = fcmp olt float %.274, %7
  %.not = icmp eq ptr %.260, null
  %50 = select i1 %.not, ptr %.365, ptr %.260
  %.3 = select i1 %49, ptr %50, ptr %.053104
  call void @llvm.lifetime.end.p0(i64 4, ptr nonnull %6) #42
  br label %.loopexit

51:                                               ; preds = %46, %24, %25
  %.177 = phi float [ %.07698, %25 ], [ 0.000000e+00, %24 ], [ %.379, %46 ]
  %.173 = phi float [ %.07299, %25 ], [ 0.000000e+00, %24 ], [ %.274, %46 ]
  %.168 = phi float [ %.067100, %25 ], [ 0.000000e+00, %24 ], [ %.370, %46 ]
  %.163 = phi ptr [ %.062101, %25 ], [ %.062101, %24 ], [ %.365, %46 ]
  %.159 = phi ptr [ %.058102, %25 ], [ %.058102, %24 ], [ %.260, %46 ]
  %.156 = phi i8 [ %.055103, %25 ], [ 1, %24 ], [ %.257, %46 ]
  call void @llvm.lifetime.end.p0(i64 4, ptr nonnull %6) #42
  %52 = icmp ult ptr %.052, %3
  br i1 %52, label %11, label %.loopexit

.loopexit:                                        ; preds = %51, %5, %.thread
  %.154 = phi ptr [ %.3, %.thread ], [ %2, %5 ], [ %.052, %51 ]
  %53 = icmp eq ptr %.154, %2
  %or.cond = and i1 %8, %53
  %.0.idx = zext i1 %or.cond to i64
  %.0 = getelementptr inbounds nuw i8, ptr %.154, i64 %.0.idx
  ret ptr %.0
}